; Function Attrs: nounwind uwtable
define range(i32 -1, 1) i32 @H5Zget_filter_info(i32 noundef %0, ptr noundef writeonly %1) local_unnamed_addr #0 {
  %3 = load i8, ptr @H5_libinit_g, align 1
  %4 = trunc i8 %3 to i1
  %5 = load i8, ptr @H5_libterm_g, align 1
  %6 = trunc i8 %5 to i1
  %7 = select i1 %4, i1 true, i1 %6
  br i1 %7, label %15, label %8

8:                                                ; preds = %2
  %9 = tail call i32 @H5_init_library() #9
  %10 = icmp slt i32 %9, 0
  br i1 %10, label %11, label %15

11:                                               ; preds = %8
  %12 = load i64, ptr @H5E_FUNC_g, align 8
  %13 = load i64, ptr @H5E_CANTINIT_g, align 8
  %14 = tail call i32 (ptr, ptr, i32, i64, i64, ptr, ...) @H5E_printf_stack(ptr noundef nonnull @.str, ptr noundef nonnull @__func__.H5Zget_filter_info, i32 noundef 1718, i64 noundef %12, i64 noundef %13, ptr noundef nonnull @.str.6) #9
  br label %.thread18

15:                                               ; preds = %8, %2
  %16 = tail call i32 @H5CX_push() #9
  %17 = icmp slt i32 %16, 0
  br i1 %17, label %18, label %22

18:                                               ; preds = %15
  %19 = load i64, ptr @H5E_FUNC_g, align 8
  %20 = load i64, ptr @H5E_CANTSET_g, align 8
  %21 = tail call i32 (ptr, ptr, i32, i64, i64, ptr, ...) @H5E_printf_stack(ptr noundef nonnull @.str, ptr noundef nonnull @__func__.H5Zget_filter_info, i32 noundef 1718, i64 noundef %19, i64 noundef %20, ptr noundef nonnull @.str.7) #9
  br label %.thread18

22:                                               ; preds = %15
  %23 = tail call i32 @H5E_clear_stack() #9
  %24 = load i64, ptr @H5Z_table_used_g, align 8
  %.not.i.i.i = icmp eq i64 %24, 0
  br i1 %.not.i.i.i, label %.thread23, label %.lr.ph.i.i.i

.lr.ph.i.i.i:                                     ; preds = %22
  %25 = load ptr, ptr @H5Z_table_g, align 8
  br label %26

26:                                               ; preds = %30, %.lr.ph.i.i.i
  %.068.i.i.i = phi i64 [ 0, %.lr.ph.i.i.i ], [ %31, %30 ]
  %27 = getelementptr inbounds %struct.H5Z_class2_t, ptr %25, i64 %.068.i.i.i, i32 1
  %28 = load i32, ptr %27, align 4
  %29 = icmp eq i32 %28, %0
  br i1 %29, label %H5Z__find_idx.exit.i.i, label %30

30:                                               ; preds = %26
  %31 = add nuw i64 %.068.i.i.i, 1
  %exitcond.not.i.i.i = icmp eq i64 %31, %24
  br i1 %exitcond.not.i.i.i, label %.thread23, label %26

H5Z__find_idx.exit.i.i:                           ; preds = %26
  %32 = and i64 %.068.i.i.i, 2147483648
  %.not.i.i = icmp eq i64 %32, 0
  br i1 %.not.i.i, label %33, label %.thread23

33:                                               ; preds = %H5Z__find_idx.exit.i.i
  %.not.i = icmp eq ptr %1, null
  br i1 %.not.i, label %53, label %34

34:                                               ; preds = %33
  %35 = and i64 %.068.i.i.i, 2147483647
  %36 = getelementptr inbounds %struct.H5Z_class2_t, ptr %25, i64 %35
  store i32 0, ptr %1, align 4
  %37 = getelementptr inbounds i8, ptr %36, i64 8
  %38 = load i32, ptr %37, align 8
  %.not10.i = icmp ne i32 %38, 0
  %spec.store.select.i = zext i1 %.not10.i to i32
  store i32 %spec.store.select.i, ptr %1, align 4
  %39 = getelementptr inbounds i8, ptr %36, i64 12
  %40 = load i32, ptr %39, align 4
  %.not11.i = icmp eq i32 %40, 0
  br i1 %.not11.i, label %53, label %41

41:                                               ; preds = %34
  %42 = or disjoint i32 %spec.store.select.i, 2
  store i32 %42, ptr %1, align 4
  br label %53

.thread23:                                        ; preds = %30, %22, %H5Z__find_idx.exit.i.i
  %43 = load i64, ptr @H5E_PLINE_g, align 8
  %44 = load i64, ptr @H5E_NOTFOUND_g, align 8
  %45 = tail call i32 (ptr, ptr, i32, i64, i64, ptr, ...) @H5E_printf_stack(ptr noundef nonnull @.str, ptr noundef nonnull @__func__.H5Z_find, i32 noundef 1311, i64 noundef %43, i64 noundef %44, ptr noundef nonnull @.str.32, i32 noundef %0) #9
  %46 = load i64, ptr @H5E_PLINE_g, align 8
  %47 = load i64, ptr @H5E_BADVALUE_g, align 8
  %48 = tail call i32 (ptr, ptr, i32, i64, i64, ptr, ...) @H5E_printf_stack(ptr noundef nonnull @.str, ptr noundef nonnull @__func__.H5Z_get_filter_info, i32 noundef 1748, i64 noundef %46, i64 noundef %47, ptr noundef nonnull @.str.40) #9
  %49 = load i64, ptr @H5E_PLINE_g, align 8
  %50 = load i64, ptr @H5E_CANTGET_g, align 8
  %51 = tail call i32 (ptr, ptr, i32, i64, i64, ptr, ...) @H5E_printf_stack(ptr noundef nonnull @.str, ptr noundef nonnull @__func__.H5Zget_filter_info, i32 noundef 1722, i64 noundef %49, i64 noundef %50, ptr noundef nonnull @.str.39) #9
  %52 = tail call i32 @H5CX_pop(i1 noundef zeroext true) #9
  br label %.thread18

53:                                               ; preds = %41, %34, %33
  %54 = tail call i32 @H5CX_pop(i1 noundef zeroext true) #9
  br label %56

.thread18:                                        ; preds = %18, %11, %.thread23
  %55 = tail call i32 @H5E_dump_api_stack() #9
  br label %56

56:                                               ; preds = %53, %.thread18
  %.081321 = phi i32 [ -1, %.thread18 ], [ 0, %53 ]
  ret i32 %.081321
}